; Function Attrs: mustprogress nounwind uwtable
define internal fastcc void @"_ZSt21__inplace_stable_sortIN9__gnu_cxx17__normal_iteratorIPSt10unique_ptrIN12_GLOBAL__N_113MatchableInfoESt14default_deleteIS4_EESt6vectorIS7_SaIS7_EEEENS0_5__ops15_Iter_comp_iterIZNS3_17AsmMatcherEmitter3runERN4llvm11raw_ostreamEE3$_0EEEvT_SL_T0_"(ptr %0, ptr %1, i8 %2) unnamed_addr #0 {
  %4 = ptrtoint ptr %1 to i64
  %5 = ptrtoint ptr %0 to i64
  %6 = sub i64 %4, %5
  %7 = ashr exact i64 %6, 3
  %8 = icmp slt i64 %7, 15
  br i1 %8, label %common.ret, label %9

common.ret:                                       ; preds = %3
  tail call fastcc void @"_ZSt16__insertion_sortIN9__gnu_cxx17__normal_iteratorIPSt10unique_ptrIN12_GLOBAL__N_113MatchableInfoESt14default_deleteIS4_EESt6vectorIS7_SaIS7_EEEENS0_5__ops15_Iter_comp_iterIZNS3_17AsmMatcherEmitter3runERN4llvm11raw_ostreamEE3$_0EEEvT_SL_T0_"(ptr %0, ptr %1, i8 %2)
  br label %common.ret27

common.ret27:                                     ; preds = %9, %common.ret
  ret void

9:                                                ; preds = %3
  %10 = lshr i64 %7, 1
  %11 = getelementptr inbounds %"class.std::unique_ptr.124", ptr %0, i64 %10
  tail call fastcc void @"_ZSt21__inplace_stable_sortIN9__gnu_cxx17__normal_iteratorIPSt10unique_ptrIN12_GLOBAL__N_113MatchableInfoESt14default_deleteIS4_EESt6vectorIS7_SaIS7_EEEENS0_5__ops15_Iter_comp_iterIZNS3_17AsmMatcherEmitter3runERN4llvm11raw_ostreamEE3$_0EEEvT_SL_T0_"(ptr %0, ptr %11, i8 %2)
  tail call fastcc void @"_ZSt21__inplace_stable_sortIN9__gnu_cxx17__normal_iteratorIPSt10unique_ptrIN12_GLOBAL__N_113MatchableInfoESt14default_deleteIS4_EESt6vectorIS7_SaIS7_EEEENS0_5__ops15_Iter_comp_iterIZNS3_17AsmMatcherEmitter3runERN4llvm11raw_ostreamEE3$_0EEEvT_SL_T0_"(ptr %11, ptr %1, i8 %2)
  %12 = ptrtoint ptr %11 to i64
  %13 = sub i64 %4, %12
  %14 = ashr exact i64 %13, 3
  tail call fastcc void @"_ZSt22__merge_without_bufferIN9__gnu_cxx17__normal_iteratorIPSt10unique_ptrIN12_GLOBAL__N_113MatchableInfoESt14default_deleteIS4_EESt6vectorIS7_SaIS7_EEEElNS0_5__ops15_Iter_comp_iterIZNS3_17AsmMatcherEmitter3runERN4llvm11raw_ostreamEE3$_0EEEvT_SL_SL_T0_SM_T1_"(ptr %0, ptr %11, ptr %1, i64 noundef %10, i64 noundef %14, i8 %2)
  br label %common.ret27
}